target datalayout = "e-m:e-p270:32:32-p271:32:32-p272:64:64-i64:64-i128:128-f80:128-n8:16:32:64-S128"
target triple = "x86_64-pc-linux-gnu"

%"class.lean::object_ref" = type { ptr }
%struct.lean_object = type { i32, i32 }

; Function Attrs: inlinehint mustprogress nounwind uwtable
define internal noundef zeroext i1 @_ZL10lean_is_stP11lean_object(ptr noundef %0) #10 {
  %2 = alloca ptr, align 8
  store ptr %0, ptr %2, align 8, !tbaa !22
  %3 = load ptr, ptr %2, align 8, !tbaa !22
  %4 = getelementptr inbounds nuw %struct.lean_object, ptr %3, i32 0, i32 0
  %5 = load i32, ptr %4, align 4, !tbaa !23
  %6 = icmp sgt i32 %5, 0
  ret i1 %6
}

; Function Attrs: inlinehint mustprogress uwtable
define internal void @_ZL12lean_inc_refP11lean_object(ptr noundef %0) #7 {
  %2 = alloca ptr, align 8
  store ptr %0, ptr %2, align 8, !tbaa !22
  %3 = load ptr, ptr %2, align 8, !tbaa !22
  %4 = call noundef zeroext i1 @_ZL10lean_is_stP11lean_object(ptr noundef %3)
  %5 = zext i1 %4 to i64
  %6 = call i64 @llvm.expect.i64(i64 %5, i64 1)
  %7 = icmp ne i64 %6, 0
  br i1 %7, label %8, label %13

8:                                                ; preds = %1
  %9 = load ptr, ptr %2, align 8, !tbaa !22
  %10 = getelementptr inbounds nuw %struct.lean_object, ptr %9, i32 0, i32 0
  %11 = load i32, ptr %10, align 4, !tbaa !23
  %12 = add nsw i32 %11, 1
  store i32 %12, ptr %10, align 4, !tbaa !23
  br label %21

13:                                               ; preds = %1
  %14 = load ptr, ptr %2, align 8, !tbaa !22
  %15 = getelementptr inbounds nuw %struct.lean_object, ptr %14, i32 0, i32 0
  %16 = load i32, ptr %15, align 4, !tbaa !23
  %17 = icmp ne i32 %16, 0
  br i1 %17, label %18, label %20

18:                                               ; preds = %13
  %19 = load ptr, ptr %2, align 8, !tbaa !22
  call void @lean_inc_ref_cold(ptr noundef %19)
  br label %20

20:                                               ; preds = %18, %13
  br label %21

21:                                               ; preds = %20, %8
  ret void
}

; Function Attrs: alwaysinline mustprogress nounwind uwtable
define internal noundef zeroext i1 @_ZL14lean_is_scalarP11lean_object(ptr noundef %0) #9 {
  %2 = alloca ptr, align 8
  store ptr %0, ptr %2, align 8, !tbaa !22
  %3 = load ptr, ptr %2, align 8, !tbaa !22
  %4 = ptrtoint ptr %3 to i64
  %5 = and i64 %4, 1
  %6 = icmp eq i64 %5, 1
  ret i1 %6
}

; Function Attrs: alwaysinline mustprogress uwtable
define internal void @_ZL8lean_incP11lean_object(ptr noundef %0) #8 {
  %2 = alloca ptr, align 8
  store ptr %0, ptr %2, align 8, !tbaa !22
  %3 = load ptr, ptr %2, align 8, !tbaa !22
  %4 = call noundef zeroext i1 @_ZL14lean_is_scalarP11lean_object(ptr noundef %3)
  br i1 %4, label %7, label %5

5:                                                ; preds = %1
  %6 = load ptr, ptr %2, align 8, !tbaa !22
  call void @_ZL12lean_inc_refP11lean_object(ptr noundef %6)
  br label %7

7:                                                ; preds = %5, %1
  ret void
}

; Function Attrs: inlinehint mustprogress uwtable
define linkonce_odr hidden void @_ZN4lean3incEP11lean_object(ptr noundef %0) #7 comdat {
  %2 = alloca ptr, align 8
  store ptr %0, ptr %2, align 8, !tbaa !22
  %3 = load ptr, ptr %2, align 8, !tbaa !22
  call void @_ZL8lean_incP11lean_object(ptr noundef %3)
  ret void
}

; Function Attrs: mustprogress uwtable
define linkonce_odr hidden noundef ptr @_ZNK4lean10object_ref10to_obj_argEv(ptr noundef nonnull align 8 dereferenceable(8) %0) #0 comdat align 2 {
  %2 = alloca ptr, align 8
  store ptr %0, ptr %2, align 8, !tbaa !8
  %3 = load ptr, ptr %2, align 8
  %4 = getelementptr inbounds nuw %"class.lean::object_ref", ptr %3, i32 0, i32 0
  %5 = load ptr, ptr %4, align 8, !tbaa !10
  call void @_ZN4lean3incEP11lean_object(ptr noundef %5)
  %6 = getelementptr inbounds nuw %"class.lean::object_ref", ptr %3, i32 0, i32 0
  %7 = load ptr, ptr %6, align 8, !tbaa !10
  ret ptr %7
}

; Function Attrs: mustprogress uwtable
define hidden noundef zeroext i1 @_ZN4lean11is_instanceERKNS_16elab_environmentERKNS_4nameE(ptr noundef nonnull align 8 dereferenceable(8) %0, ptr noundef nonnull align 8 dereferenceable(8) %1) #0 {
  %3 = alloca ptr, align 8
  %4 = alloca ptr, align 8
  store ptr %0, ptr %3, align 8, !tbaa !12
  store ptr %1, ptr %4, align 8, !tbaa !14
  %5 = load ptr, ptr %3, align 8, !tbaa !12
  %6 = call noundef ptr @_ZNK4lean10object_ref10to_obj_argEv(ptr noundef nonnull align 8 dereferenceable(8) %5)
  %7 = load ptr, ptr %4, align 8, !tbaa !14
  %8 = call noundef ptr @_ZNK4lean10object_ref10to_obj_argEv(ptr noundef nonnull align 8 dereferenceable(8) %7)
  %9 = call zeroext i8 @lean_is_instance(ptr noundef %6, ptr noundef %8)
  %10 = icmp ne i8 %9, 0
  ret i1 %10
}